target datalayout = "e-m:e-p270:32:32-p271:32:32-p272:64:64-i64:64-i128:128-f80:128-n8:16:32:64-S128"
target triple = "x86_64-pc-linux-gnu"

; Function Attrs: nounwind uwtable
define internal i32 @Prs_ManIsKnownModule(ptr noundef %0) #0 {
  %2 = alloca i32, align 4
  %3 = alloca ptr, align 8
  %4 = alloca i32, align 4
  %5 = alloca i32, align 4
  store ptr %0, ptr %3, align 8
  store i32 1, ptr %4, align 4
  br label %6

6:                                                ; preds = %31, %1
  %7 = load i32, ptr %4, align 4
  %8 = sext i32 %7 to i64
  %9 = getelementptr inbounds [100 x ptr], ptr @s_VerNames, i64 0, i64 %8
  %10 = load ptr, ptr %9, align 8
  %11 = icmp ne ptr %10, null
  br i1 %11, label %12, label %34

12:                                               ; preds = %6
  %13 = load i32, ptr %4, align 4
  %14 = sext i32 %13 to i64
  %15 = getelementptr inbounds [100 x ptr], ptr @s_VerNames, i64 0, i64 %14
  %16 = load ptr, ptr %15, align 8
  %17 = call i64 @strlen(ptr noundef %16) #11
  %18 = trunc i64 %17 to i32
  store i32 %18, ptr %5, align 4
  %19 = load ptr, ptr %3, align 8
  %20 = load i32, ptr %4, align 4
  %21 = sext i32 %20 to i64
  %22 = getelementptr inbounds [100 x ptr], ptr @s_VerNames, i64 0, i64 %21
  %23 = load ptr, ptr %22, align 8
  %24 = load i32, ptr %5, align 4
  %25 = sext i32 %24 to i64
  %26 = call i32 @strncmp(ptr noundef %19, ptr noundef %23, i64 noundef %25) #11
  %27 = icmp ne i32 %26, 0
  br i1 %27, label %30, label %28

28:                                               ; preds = %12
  %29 = load i32, ptr %4, align 4
  store i32 %29, ptr %2, align 4
  br label %35

30:                                               ; preds = %12
  br label %31

31:                                               ; preds = %30
  %32 = load i32, ptr %4, align 4
  %33 = add nsw i32 %32, 1
  store i32 %33, ptr %4, align 4
  br label %6, !llvm.loop !76

34:                                               ; preds = %6
  store i32 0, ptr %2, align 4
  br label %35

35:                                               ; preds = %34, %28
  %36 = load i32, ptr %2, align 4
  ret i32 %36
}