; Function Attrs: nofree nounwind memory(read, inaccessiblemem: none) uwtable
define internal fastcc i32 @Prs_ManIsKnownModule(ptr noundef readonly captures(none) %0) unnamed_addr #13 {
  br label %2

2:                                                ; preds = %1, %7
  %indvars.iv = phi i64 [ 1, %1 ], [ %indvars.iv.next, %7 ]
  %3 = phi ptr [ @.str.85, %1 ], [ %9, %7 ]
  %4 = tail call i64 @strlen(ptr noundef nonnull dereferenceable(1) %3) #31
  %sext = shl i64 %4, 32
  %5 = ashr exact i64 %sext, 32
  %6 = tail call i32 @strncmp(ptr noundef %0, ptr noundef nonnull %3, i64 noundef %5) #31
  %.not9 = icmp eq i32 %6, 0
  br i1 %.not9, label %.split.loop.exit12, label %7

7:                                                ; preds = %2
  %indvars.iv.next = add nuw nsw i64 %indvars.iv, 1
  %8 = getelementptr inbounds nuw [100 x ptr], ptr @s_VerNames, i64 0, i64 %indvars.iv.next
  %9 = load ptr, ptr %8, align 8
  %exitcond = icmp eq i64 %indvars.iv.next, 55
  br i1 %exitcond, label %.split.loop.exit, label %2, !llvm.loop !79

.split.loop.exit12:                               ; preds = %2
  %10 = trunc nuw nsw i64 %indvars.iv to i32
  br label %.split.loop.exit

.split.loop.exit:                                 ; preds = %7, %.split.loop.exit12
  %.0 = phi i32 [ %10, %.split.loop.exit12 ], [ 0, %7 ]
  ret i32 %.0
}